; Function Attrs: mustprogress nofree norecurse nosync nounwind willreturn memory(argmem: read) uwtable
define noundef range(i32 -128, 128) i32 @_ZNK6icu_7717GregorianCalendar11monthLengthEii(ptr noundef nonnull readonly align 8 captures(none) dereferenceable(222) %0, i32 noundef %1, i32 noundef %2) unnamed_addr #7 align 2 {
  %4 = getelementptr inbounds nuw i8, ptr %0, i64 216
  %5 = load i32, ptr %4, align 8, !tbaa !22
  %.fr = freeze i32 %5
  %.not.i = icmp slt i32 %2, %.fr
  %6 = and i32 %2, 3
  %7 = icmp eq i32 %6, 0
  %.not6.i = xor i1 %7, true
  %brmerge.i = or i1 %.not.i, %.not6.i
  br i1 %brmerge.i, label %_ZNK6icu_7717GregorianCalendar10isLeapYearEi.exit, label %8

8:                                                ; preds = %3
  %9 = srem i32 %2, 100
  %.not5.i = icmp eq i32 %9, 0
  br i1 %.not5.i, label %12, label %_ZNK6icu_7717GregorianCalendar10isLeapYearEi.exit.thread

_ZNK6icu_7717GregorianCalendar10isLeapYearEi.exit.thread: ; preds = %8
  %10 = sext i32 %1 to i64
  %11 = getelementptr inbounds [12 x i8], ptr @_ZL16kLeapMonthLength, i64 0, i64 %10
  br label %21

12:                                               ; preds = %8
  %13 = srem i32 %2, 400
  %14 = icmp eq i32 %13, 0
  %15 = sext i32 %1 to i64
  %16 = getelementptr inbounds [12 x i8], ptr @_ZL16kLeapMonthLength, i64 0, i64 %15
  %17 = getelementptr inbounds [12 x i8], ptr @_ZL12kMonthLength, i64 0, i64 %15
  br i1 %14, label %21, label %23

_ZNK6icu_7717GregorianCalendar10isLeapYearEi.exit: ; preds = %3
  %.mux.i = and i1 %7, %.not.i
  %18 = sext i32 %1 to i64
  %19 = getelementptr inbounds [12 x i8], ptr @_ZL16kLeapMonthLength, i64 0, i64 %18
  %20 = getelementptr inbounds [12 x i8], ptr @_ZL12kMonthLength, i64 0, i64 %18
  br i1 %.mux.i, label %21, label %23

21:                                               ; preds = %12, %_ZNK6icu_7717GregorianCalendar10isLeapYearEi.exit.thread, %_ZNK6icu_7717GregorianCalendar10isLeapYearEi.exit
  %22 = phi ptr [ %11, %_ZNK6icu_7717GregorianCalendar10isLeapYearEi.exit.thread ], [ %19, %_ZNK6icu_7717GregorianCalendar10isLeapYearEi.exit ], [ %16, %12 ]
  br label %23

23:                                               ; preds = %12, %_ZNK6icu_7717GregorianCalendar10isLeapYearEi.exit, %21
  %24 = phi ptr [ %22, %21 ], [ %20, %_ZNK6icu_7717GregorianCalendar10isLeapYearEi.exit ], [ %17, %12 ]
  %25 = load i8, ptr %24, align 1, !tbaa !33
  %26 = sext i8 %25 to i32
  ret i32 %26
}